target datalayout = "e-m:e-p270:32:32-p271:32:32-p272:64:64-i64:64-i128:128-f80:128-n8:16:32:64-S128"
target triple = "x86_64-unknown-linux-gnu"

%"struct.hermes::vm::instrumentation::PerfCounter" = type { i32, ptr, i32, i64 }
%struct.perf_event_attr = type { i32, i32, i64, %union.anon, i64, i64, i64, %union.anon.0, i32, %union.anon.1, %union.anon.2, i64, i64, i32, i32, i64, i32, i16, i16, i32, i32, i64 }
%union.anon = type { i64 }
%union.anon.0 = type { i32 }
%union.anon.1 = type { i64 }
%union.anon.2 = type { i64 }

; Function Attrs: mustprogress nounwind uwtable
define hidden noundef zeroext i1 @_ZN6hermes2vm15instrumentation11PerfCounter10ensureInitEv(ptr noundef nonnull align 8 dereferenceable(32) %this) #0 align 2 {
entry:
  %this.addr = alloca ptr, align 8
  %pe = alloca %struct.perf_event_attr, align 8
  store ptr %this, ptr %this.addr, align 8
  %this1 = load ptr, ptr %this.addr, align 8
  call void @llvm.memset.p0.i64(ptr align 8 %pe, i8 0, i64 128, i1 false)
  %type_ = getelementptr inbounds %"struct.hermes::vm::instrumentation::PerfCounter", ptr %this1, i32 0, i32 2
  %0 = load i32, ptr %type_, align 8
  %type = getelementptr inbounds %struct.perf_event_attr, ptr %pe, i32 0, i32 0
  store i32 %0, ptr %type, align 8
  %size = getelementptr inbounds %struct.perf_event_attr, ptr %pe, i32 0, i32 1
  store i32 128, ptr %size, align 4
  %config_ = getelementptr inbounds %"struct.hermes::vm::instrumentation::PerfCounter", ptr %this1, i32 0, i32 3
  %1 = load i64, ptr %config_, align 8
  %config = getelementptr inbounds %struct.perf_event_attr, ptr %pe, i32 0, i32 2
  store i64 %1, ptr %config, align 8
  %disabled = getelementptr inbounds %struct.perf_event_attr, ptr %pe, i32 0, i32 6
  %bf.load = load i64, ptr %disabled, align 8
  %bf.clear = and i64 %bf.load, -2
  %bf.set = or i64 %bf.clear, 1
  store i64 %bf.set, ptr %disabled, align 8
  %exclude_kernel = getelementptr inbounds %struct.perf_event_attr, ptr %pe, i32 0, i32 6
  %bf.load2 = load i64, ptr %exclude_kernel, align 8
  %bf.clear3 = and i64 %bf.load2, -33
  %bf.set4 = or i64 %bf.clear3, 32
  store i64 %bf.set4, ptr %exclude_kernel, align 8
  %exclude_hv = getelementptr inbounds %struct.perf_event_attr, ptr %pe, i32 0, i32 6
  %bf.load5 = load i64, ptr %exclude_hv, align 8
  %bf.clear6 = and i64 %bf.load5, -65
  %bf.set7 = or i64 %bf.clear6, 64
  store i64 %bf.set7, ptr %exclude_hv, align 8
  %call = call i64 (i64, ...) @syscall(i64 noundef 298, ptr noundef %pe, i32 noundef 0, i32 noundef -1, i32 noundef -1, i32 noundef 0) #6
  %conv = trunc i64 %call to i32
  %fd_ = getelementptr inbounds %"struct.hermes::vm::instrumentation::PerfCounter", ptr %this1, i32 0, i32 0
  store i32 %conv, ptr %fd_, align 8
  %fd_8 = getelementptr inbounds %"struct.hermes::vm::instrumentation::PerfCounter", ptr %this1, i32 0, i32 0
  %2 = load i32, ptr %fd_8, align 8
  %cmp = icmp ne i32 %2, -1
  ret i1 %cmp
}