; Function Attrs: mustprogress nounwind uwtable
define hidden noundef zeroext i1 @_ZN6hermes2vm15instrumentation11PerfCounter10ensureInitEv(ptr nocapture noundef nonnull align 8 dereferenceable(32) %this) local_unnamed_addr #0 align 2 {
entry:
  %pe = alloca %struct.perf_event_attr, align 8
  %0 = getelementptr inbounds i8, ptr %pe, i64 16
  call void @llvm.memset.p0.i64(ptr noundef nonnull align 8 dereferenceable(128) %0, i8 0, i64 112, i1 false)
  %type_ = getelementptr inbounds i8, ptr %this, i64 16
  %1 = load i32, ptr %type_, align 8
  store i32 %1, ptr %pe, align 8
  %size = getelementptr inbounds i8, ptr %pe, i64 4
  store i32 128, ptr %size, align 4
  %config_ = getelementptr inbounds i8, ptr %this, i64 24
  %2 = load i64, ptr %config_, align 8
  %config = getelementptr inbounds i8, ptr %pe, i64 8
  store i64 %2, ptr %config, align 8
  %disabled = getelementptr inbounds i8, ptr %pe, i64 40
  store i64 97, ptr %disabled, align 8
  %call = call i64 (i64, ...) @syscall(i64 noundef 298, ptr noundef nonnull %pe, i32 noundef 0, i32 noundef -1, i32 noundef -1, i32 noundef 0) #8
  %conv = trunc i64 %call to i32
  store i32 %conv, ptr %this, align 8
  %cmp = icmp ne i32 %conv, -1
  ret i1 %cmp
}